target datalayout = "e-m:e-p270:32:32-p271:32:32-p272:64:64-i64:64-i128:128-f80:128-n8:16:32:64-S128"
target triple = "x86_64-pc-linux-gnu"

%union.pthread_mutex_t = type { %struct.__pthread_mutex_s }
%struct.__pthread_mutex_s = type { i32, i32, i32, i32, i32, i16, i16, %struct.__pthread_internal_list }
%struct.__pthread_internal_list = type { ptr, ptr }
%struct.stats = type { i64, i64, i64, i64, i64, i64, i64, i64, i64, i64, i64, i64, i64, i64, i64, i64, i64, i64, i64, i64, i64, i64, i64, i64, %struct.timeval, i64, i64 }
%struct.timeval = type { i64, i64 }
%struct.LIBEVENT_THREAD = type { i64, ptr, %struct.thread_notify, %struct.thread_notify, %union.pthread_mutex_t, %struct.iop_head_s, i32, i32, i32, %struct.thread_stats, [3 x %struct.io_queue_s], ptr, ptr, ptr, ptr, ptr, ptr, ptr, i32 }
%struct.thread_notify = type { %struct.event, i32 }
%struct.event = type { %struct.event_callback, %union.anon.0, i32, ptr, %union.anon.2, i16, i16, %struct.timeval }
%struct.event_callback = type { %struct.anon, i16, i8, i8, %union.anon, ptr }
%struct.anon = type { ptr, ptr }
%union.anon = type { ptr }
%union.anon.0 = type { %struct.anon.1 }
%struct.anon.1 = type { ptr, ptr }
%union.anon.2 = type { %struct.anon.3 }
%struct.anon.3 = type { %struct.anon.4, %struct.timeval }
%struct.anon.4 = type { ptr, ptr }
%struct.iop_head_s = type { ptr, ptr }
%struct.thread_stats = type { %union.pthread_mutex_t, i64, i64, i64, i64, i64, i64, i64, i64, i64, i64, i64, i64, i64, i64, i64, i64, i64, i64, i64, i64, i64, i64, i64, i64, i64, i64, i64, i64, i64, i64, [64 x %struct.slab_stats], [256 x i64], i64, i64, i64 }
%struct.slab_stats = type { i64, i64, i64, i64, i64, i64, i64, i64 }
%struct.io_queue_s = type { ptr, %struct.iop_head_s, ptr, i32 }
%struct.conn_queue_item = type { i32, i32, i32, i32, i32, i32, ptr, ptr, i64, i32, ptr, %struct.anon.7 }
%struct.anon.7 = type { ptr }
%struct.conn_queue = type { %struct.conn_ev_head, %union.pthread_mutex_t, ptr }
%struct.conn_ev_head = type { ptr, ptr }

@.str.13 = private unnamed_addr constant [33 x i8] c"failed writing to worker eventfd\00", align 1
@stats_lock = internal global %union.pthread_mutex_t zeroinitializer, align 8
@stats = external global %struct.stats, align 8

; Function Attrs: nounwind uwtable
define internal void @cq_push(ptr noundef %0, ptr noundef %1) #0 {
  %3 = alloca ptr, align 8
  %4 = alloca ptr, align 8
  store ptr %0, ptr %3, align 8, !tbaa !73
  store ptr %1, ptr %4, align 8, !tbaa !43
  %5 = load ptr, ptr %3, align 8, !tbaa !73
  %6 = getelementptr inbounds nuw %struct.conn_queue, ptr %5, i32 0, i32 1
  %7 = call i32 @pthread_mutex_lock(ptr noundef %6) #8
  br label %8

8:                                                ; preds = %2
  %9 = load ptr, ptr %4, align 8, !tbaa !43
  %10 = getelementptr inbounds nuw %struct.conn_queue_item, ptr %9, i32 0, i32 11
  %11 = getelementptr inbounds nuw %struct.anon.7, ptr %10, i32 0, i32 0
  store ptr null, ptr %11, align 8, !tbaa !215
  %12 = load ptr, ptr %4, align 8, !tbaa !43
  %13 = load ptr, ptr %3, align 8, !tbaa !73
  %14 = getelementptr inbounds nuw %struct.conn_queue, ptr %13, i32 0, i32 0
  %15 = getelementptr inbounds nuw %struct.conn_ev_head, ptr %14, i32 0, i32 1
  %16 = load ptr, ptr %15, align 8, !tbaa !216
  store ptr %12, ptr %16, align 8, !tbaa !43
  %17 = load ptr, ptr %4, align 8, !tbaa !43
  %18 = getelementptr inbounds nuw %struct.conn_queue_item, ptr %17, i32 0, i32 11
  %19 = getelementptr inbounds nuw %struct.anon.7, ptr %18, i32 0, i32 0
  %20 = load ptr, ptr %3, align 8, !tbaa !73
  %21 = getelementptr inbounds nuw %struct.conn_queue, ptr %20, i32 0, i32 0
  %22 = getelementptr inbounds nuw %struct.conn_ev_head, ptr %21, i32 0, i32 1
  store ptr %19, ptr %22, align 8, !tbaa !216
  br label %23

23:                                               ; preds = %8
  %24 = load ptr, ptr %3, align 8, !tbaa !73
  %25 = getelementptr inbounds nuw %struct.conn_queue, ptr %24, i32 0, i32 1
  %26 = call i32 @pthread_mutex_unlock(ptr noundef %25) #8
  ret void
}

; Function Attrs: nounwind uwtable
define dso_local void @STATS_UNLOCK() #0 {
  %1 = call i32 @pthread_mutex_unlock(ptr noundef @stats_lock) #8
  ret void
}

; Function Attrs: nounwind uwtable
define dso_local void @STATS_LOCK() #0 {
  %1 = call i32 @pthread_mutex_lock(ptr noundef @stats_lock) #8
  ret void
}

; Function Attrs: nounwind uwtable
define internal void @notify_worker(ptr noundef %0, ptr noundef %1) #0 {
  %3 = alloca ptr, align 8
  %4 = alloca ptr, align 8
  %5 = alloca i64, align 8
  store ptr %0, ptr %3, align 8, !tbaa !8
  store ptr %1, ptr %4, align 8, !tbaa !43
  %6 = load ptr, ptr %3, align 8, !tbaa !8
  %7 = getelementptr inbounds nuw %struct.LIBEVENT_THREAD, ptr %6, i32 0, i32 11
  %8 = load ptr, ptr %7, align 8, !tbaa !25
  %9 = load ptr, ptr %4, align 8, !tbaa !43
  call void @cq_push(ptr noundef %8, ptr noundef %9)
  call void @llvm.lifetime.start.p0(i64 8, ptr %5) #8
  store i64 1, ptr %5, align 8, !tbaa !58
  %10 = load ptr, ptr %3, align 8, !tbaa !8
  %11 = getelementptr inbounds nuw %struct.LIBEVENT_THREAD, ptr %10, i32 0, i32 2
  %12 = getelementptr inbounds nuw %struct.thread_notify, ptr %11, i32 0, i32 1
  %13 = load i32, ptr %12, align 8, !tbaa !79
  %14 = call i64 @write(i32 noundef %13, ptr noundef %5, i64 noundef 8)
  %15 = icmp ne i64 %14, 8
  br i1 %15, label %16, label %17

16:                                               ; preds = %2
  call void @perror(ptr noundef @.str.13)
  br label %17

17:                                               ; preds = %16, %2
  call void @llvm.lifetime.end.p0(i64 8, ptr %5) #8
  ret void
}

; Function Attrs: nounwind uwtable
define internal ptr @cqi_new(ptr noundef %0) #0 {
  %2 = alloca ptr, align 8
  %3 = alloca ptr, align 8
  store ptr %0, ptr %2, align 8, !tbaa !73
  call void @llvm.lifetime.start.p0(i64 8, ptr %3) #8
  %4 = load ptr, ptr %2, align 8, !tbaa !73
  %5 = getelementptr inbounds nuw %struct.conn_queue, ptr %4, i32 0, i32 2
  %6 = load ptr, ptr %5, align 8, !tbaa !74
  %7 = call ptr @cache_alloc(ptr noundef %6)
  store ptr %7, ptr %3, align 8, !tbaa !43
  %8 = load ptr, ptr %3, align 8, !tbaa !43
  %9 = icmp eq ptr %8, null
  br i1 %9, label %10, label %13

10:                                               ; preds = %1
  call void @STATS_LOCK()
  %11 = load i64, ptr getelementptr inbounds nuw (%struct.stats, ptr @stats, i32 0, i32 3), align 8, !tbaa !78
  %12 = add i64 %11, 1
  store i64 %12, ptr getelementptr inbounds nuw (%struct.stats, ptr @stats, i32 0, i32 3), align 8, !tbaa !78
  call void @STATS_UNLOCK()
  br label %13

13:                                               ; preds = %10, %1
  %14 = load ptr, ptr %3, align 8, !tbaa !43
  call void @llvm.lifetime.end.p0(i64 8, ptr %3) #8
  ret ptr %14
}

; Function Attrs: nounwind uwtable
define internal void @notify_worker_fd(ptr noundef %0, i32 noundef %1, i32 noundef %2) #0 {
  %4 = alloca ptr, align 8
  %5 = alloca i32, align 4
  %6 = alloca i32, align 4
  %7 = alloca ptr, align 8
  store ptr %0, ptr %4, align 8, !tbaa !8
  store i32 %1, ptr %5, align 4, !tbaa !4
  store i32 %2, ptr %6, align 4, !tbaa !4
  call void @llvm.lifetime.start.p0(i64 8, ptr %7) #8
  br label %8

8:                                                ; preds = %14, %3
  %9 = load ptr, ptr %4, align 8, !tbaa !8
  %10 = getelementptr inbounds nuw %struct.LIBEVENT_THREAD, ptr %9, i32 0, i32 11
  %11 = load ptr, ptr %10, align 8, !tbaa !25
  %12 = call ptr @cqi_new(ptr noundef %11)
  store ptr %12, ptr %7, align 8, !tbaa !43
  %13 = icmp eq ptr %12, null
  br i1 %13, label %14, label %15

14:                                               ; preds = %8
  br label %8, !llvm.loop !45

15:                                               ; preds = %8
  %16 = load i32, ptr %6, align 4, !tbaa !4
  %17 = load ptr, ptr %7, align 8, !tbaa !43
  %18 = getelementptr inbounds nuw %struct.conn_queue_item, ptr %17, i32 0, i32 5
  store i32 %16, ptr %18, align 4, !tbaa !46
  %19 = load i32, ptr %5, align 4, !tbaa !4
  %20 = load ptr, ptr %7, align 8, !tbaa !43
  %21 = getelementptr inbounds nuw %struct.conn_queue_item, ptr %20, i32 0, i32 0
  store i32 %19, ptr %21, align 8, !tbaa !50
  %22 = load ptr, ptr %4, align 8, !tbaa !8
  %23 = load ptr, ptr %7, align 8, !tbaa !43
  call void @notify_worker(ptr noundef %22, ptr noundef %23)
  call void @llvm.lifetime.end.p0(i64 8, ptr %7) #8
  ret void
}