; Function Attrs: nounwind uwtable
define internal fastcc void @notify_worker_fd(ptr noundef readonly captures(none) %0, i32 noundef %1, i32 noundef range(i32 1, 5) %2) unnamed_addr #0 {
  %4 = alloca i64, align 8
  %5 = getelementptr inbounds nuw i8, ptr %0, i64 6928
  %6 = load ptr, ptr %5, align 8, !tbaa !23
  %7 = getelementptr i8, ptr %6, i64 56
  %.val7 = load ptr, ptr %7, align 8, !tbaa !41
  %8 = tail call ptr @cache_alloc(ptr noundef %.val7) #15
  %9 = icmp eq ptr %8, null
  br i1 %9, label %cqi_new.exit, label %._crit_edge

cqi_new.exit:                                     ; preds = %3, %cqi_new.exit
  %10 = tail call i32 @pthread_mutex_lock(ptr noundef nonnull @stats_lock) #15
  %11 = load i64, ptr getelementptr inbounds nuw (i8, ptr @stats, i64 24), align 8, !tbaa !46
  %12 = add i64 %11, 1
  store i64 %12, ptr getelementptr inbounds nuw (i8, ptr @stats, i64 24), align 8, !tbaa !46
  %13 = tail call i32 @pthread_mutex_unlock(ptr noundef nonnull @stats_lock) #15
  %14 = load ptr, ptr %5, align 8, !tbaa !23
  %15 = getelementptr i8, ptr %14, i64 56
  %.val = load ptr, ptr %15, align 8, !tbaa !41
  %16 = tail call ptr @cache_alloc(ptr noundef %.val) #15
  %17 = icmp eq ptr %16, null
  br i1 %17, label %cqi_new.exit, label %._crit_edge, !llvm.loop !48

._crit_edge:                                      ; preds = %cqi_new.exit, %3
  %.lcssa = phi ptr [ %8, %3 ], [ %16, %cqi_new.exit ]
  %18 = getelementptr inbounds nuw i8, ptr %.lcssa, i64 20
  store i32 %2, ptr %18, align 4, !tbaa !49
  store i32 %1, ptr %.lcssa, align 8, !tbaa !53
  %19 = load ptr, ptr %5, align 8, !tbaa !23
  %20 = getelementptr inbounds nuw i8, ptr %19, i64 16
  %21 = tail call i32 @pthread_mutex_lock(ptr noundef nonnull %20) #15
  %22 = getelementptr inbounds nuw i8, ptr %.lcssa, i64 64
  store ptr null, ptr %22, align 8, !tbaa !54
  %23 = getelementptr inbounds nuw i8, ptr %19, i64 8
  %24 = load ptr, ptr %23, align 8, !tbaa !55
  store ptr %.lcssa, ptr %24, align 8, !tbaa !56
  store ptr %22, ptr %23, align 8, !tbaa !55
  %25 = tail call i32 @pthread_mutex_unlock(ptr noundef nonnull %20) #15
  call void @llvm.lifetime.start.p0(i64 8, ptr nonnull %4) #15
  store i64 1, ptr %4, align 8, !tbaa !57
  %26 = getelementptr inbounds nuw i8, ptr %0, i64 144
  %27 = load i32, ptr %26, align 8, !tbaa !58
  %28 = call i64 @write(i32 noundef %27, ptr noundef nonnull %4, i64 noundef 8) #15
  %.not.i = icmp eq i64 %28, 8
  br i1 %.not.i, label %notify_worker.exit, label %29

29:                                               ; preds = %._crit_edge
  tail call void @perror(ptr noundef nonnull @.str.13) #17
  br label %notify_worker.exit

notify_worker.exit:                               ; preds = %._crit_edge, %29
  call void @llvm.lifetime.end.p0(i64 8, ptr nonnull %4) #15
  ret void
}